(dp1
(I16
I4
I50
tp2
cnumpy.core.multiarray
scalar
p3
(cnumpy
dtype
p4
(S'f8'
I0
I1
tRp5
(I3
S'<'
NNNI-1
I-1
I0
tbS'\x08\x1dN\xcf\xb1\x1e4@'
tRp6
s(I64
I1
I1000
tp7
g3
(g5
S'\xd6\x11;\xd2\xd8%\x7f@'
tRp8
s(I16
I5
I50
tp9
g3
(g5
S'\xaa\x17j\x92\xe1u0@'
tRp10
s(I16
I1
I100
tp11
g3
(g5
S'4/a\x94\xde]H@'
tRp12
s(I16
I1
I50
tp13
g3
(g5
S'\x17J\xf1\x11-\xf67@'
tRp14
s(I16
I5
I100
tp15
g3
(g5
S'\x18f\xa7\xb6\x87"C@'
tRp16
s(I16
I6
I50
tp17
g3
(g5
S'R\xa1\xf7tBn(@'
tRp18
s(I16
I2
I100
tp19
g3
(g5
S'\xb7D\xf1DW\xd7G@'
tRp20
s(I16
I2
I50
tp21
g3
(g5
S'\xc0M\x08\x08.27@'
tRp22
s(I16
I6
I100
tp23
g3
(g5
S'\xb1\xb6r\x93\xe1o<@'
tRp24
s(I16
I3
I100
tp25
g3
(g5
S'+p\xb5\x17\x88\x0fG@'
tRp26
s(I16
I7
I50
tp27
g3
(g5
S'\x0c\x18-\xaf}\x9d\n@'
tRp28
s(I16
I7
I100
tp29
g3
(g5
S"0,\x8e\xee\xe1G'@"
tRp30
s(I16
I3
I50
tp31
g3
(g5
S'\xb6\x06ER\xd9\x0b6@'
tRp32
s(I16
I4
I100
tp33
g3
(g5
S'>a\xb9\x9c\x14\xc1E@'
tRp34
s.